target datalayout = "e-m:e-p270:32:32-p271:32:32-p272:64:64-i64:64-i128:128-f80:128-n8:16:32:64-S128"
target triple = "x86_64-pc-linux-gnu"

%struct.Bac_Man_t_ = type { ptr, ptr, ptr, ptr, i32, i32, ptr, ptr, ptr, %struct.Vec_Int_t_, %struct.Vec_Int_t_, %struct.Vec_Int_t_, %struct.Vec_Int_t_, ptr, ptr, [4 x i32], [73 x ptr], [73 x ptr] }
%struct.Vec_Int_t_ = type { i32, i32, ptr }

; Function Attrs: nounwind uwtable
define void @Bac_ManPrepareGates(ptr noundef %0) #0 {
  %2 = alloca ptr, align 8
  %3 = alloca ptr, align 8
  %4 = alloca i32, align 4
  %5 = alloca ptr, align 8
  %6 = alloca ptr, align 8
  store ptr %0, ptr %2, align 8
  %7 = load ptr, ptr %2, align 8
  %8 = getelementptr inbounds %struct.Bac_Man_t_, ptr %7, i32 0, i32 13
  %9 = load ptr, ptr %8, align 8
  %10 = icmp eq ptr %9, null
  br i1 %10, label %11, label %12

11:                                               ; preds = %1
  br label %55

12:                                               ; preds = %1
  %13 = load ptr, ptr %2, align 8
  %14 = getelementptr inbounds %struct.Bac_Man_t_, ptr %13, i32 0, i32 3
  %15 = load ptr, ptr %14, align 8
  %16 = call i32 @Abc_NamObjNumMax(ptr noundef %15)
  %17 = sext i32 %16 to i64
  %18 = call noalias ptr @calloc(i64 noundef %17, i64 noundef 8) #10
  store ptr %18, ptr %3, align 8
  store i32 1, ptr %4, align 4
  br label %19

19:                                               ; preds = %48, %12
  %20 = load i32, ptr %4, align 4
  %21 = load ptr, ptr %2, align 8
  %22 = getelementptr inbounds %struct.Bac_Man_t_, ptr %21, i32 0, i32 3
  %23 = load ptr, ptr %22, align 8
  %24 = call i32 @Abc_NamObjNumMax(ptr noundef %23)
  %25 = icmp slt i32 %20, %24
  br i1 %25, label %26, label %51

26:                                               ; preds = %19
  %27 = load ptr, ptr %2, align 8
  %28 = getelementptr inbounds %struct.Bac_Man_t_, ptr %27, i32 0, i32 3
  %29 = load ptr, ptr %28, align 8
  %30 = load i32, ptr %4, align 4
  %31 = call ptr @Abc_NamStr(ptr noundef %29, i32 noundef %30)
  store ptr %31, ptr %5, align 8
  %32 = load ptr, ptr %2, align 8
  %33 = getelementptr inbounds %struct.Bac_Man_t_, ptr %32, i32 0, i32 13
  %34 = load ptr, ptr %33, align 8
  %35 = load ptr, ptr %5, align 8
  %36 = call ptr @Mio_LibraryReadGateByName(ptr noundef %34, ptr noundef %35, ptr noundef null)
  store ptr %36, ptr %6, align 8
  %37 = load ptr, ptr %6, align 8
  %38 = icmp ne ptr %37, null
  br i1 %38, label %39, label %47

39:                                               ; preds = %26
  %40 = load ptr, ptr %6, align 8
  %41 = call ptr @Mio_GateReadSop(ptr noundef %40)
  %42 = call ptr @Dec_Factor(ptr noundef %41)
  %43 = load ptr, ptr %3, align 8
  %44 = load i32, ptr %4, align 4
  %45 = sext i32 %44 to i64
  %46 = getelementptr inbounds ptr, ptr %43, i64 %45
  store ptr %42, ptr %46, align 8
  br label %47

47:                                               ; preds = %39, %26
  br label %48

48:                                               ; preds = %47
  %49 = load i32, ptr %4, align 4
  %50 = add nsw i32 %49, 1
  store i32 %50, ptr %4, align 4
  br label %19, !llvm.loop !4

51:                                               ; preds = %19
  %52 = load ptr, ptr %3, align 8
  %53 = load ptr, ptr %2, align 8
  %54 = getelementptr inbounds %struct.Bac_Man_t_, ptr %53, i32 0, i32 14
  store ptr %52, ptr %54, align 8
  br label %55

55:                                               ; preds = %51, %11
  ret void
}