; Function Attrs: nounwind uwtable
define void @Bac_ManPrepareGates(ptr noundef captures(none) %0) local_unnamed_addr #0 {
  %2 = getelementptr inbounds nuw i8, ptr %0, i64 128
  %3 = load ptr, ptr %2, align 8
  %4 = icmp eq ptr %3, null
  br i1 %4, label %29, label %5

5:                                                ; preds = %1
  %6 = getelementptr inbounds nuw i8, ptr %0, i64 24
  %7 = load ptr, ptr %6, align 8
  %8 = tail call i32 @Abc_NamObjNumMax(ptr noundef %7) #17
  %9 = sext i32 %8 to i64
  %10 = tail call noalias ptr @calloc(i64 noundef %9, i64 noundef 8) #18
  %11 = load ptr, ptr %6, align 8
  %12 = tail call i32 @Abc_NamObjNumMax(ptr noundef %11) #17
  %13 = icmp sgt i32 %12, 1
  br i1 %13, label %.lr.ph, label %._crit_edge

.lr.ph:                                           ; preds = %5, %23
  %indvars.iv = phi i64 [ %indvars.iv.next, %23 ], [ 1, %5 ]
  %14 = load ptr, ptr %6, align 8
  %15 = trunc nuw nsw i64 %indvars.iv to i32
  %16 = tail call ptr @Abc_NamStr(ptr noundef %14, i32 noundef %15) #17
  %17 = load ptr, ptr %2, align 8
  %18 = tail call ptr @Mio_LibraryReadGateByName(ptr noundef %17, ptr noundef %16, ptr noundef null) #17
  %.not = icmp eq ptr %18, null
  br i1 %.not, label %23, label %19

19:                                               ; preds = %.lr.ph
  %20 = tail call ptr @Mio_GateReadSop(ptr noundef nonnull %18) #17
  %21 = tail call ptr @Dec_Factor(ptr noundef %20) #17
  %22 = getelementptr inbounds nuw ptr, ptr %10, i64 %indvars.iv
  store ptr %21, ptr %22, align 8
  br label %23

23:                                               ; preds = %.lr.ph, %19
  %indvars.iv.next = add nuw nsw i64 %indvars.iv, 1
  %24 = load ptr, ptr %6, align 8
  %25 = tail call i32 @Abc_NamObjNumMax(ptr noundef %24) #17
  %26 = sext i32 %25 to i64
  %27 = icmp slt i64 %indvars.iv.next, %26
  br i1 %27, label %.lr.ph, label %._crit_edge, !llvm.loop !4

._crit_edge:                                      ; preds = %23, %5
  %28 = getelementptr inbounds nuw i8, ptr %0, i64 136
  store ptr %10, ptr %28, align 8
  br label %29

29:                                               ; preds = %1, %._crit_edge
  ret void
}